; Function Attrs: mustprogress uwtable
define hidden void @_ZN3smt19conflict_resolution8mk_proofEPNS_5enodeES2_R10ptr_bufferI3appLj16EE(ptr noundef nonnull align 8 dereferenceable(356) %0, ptr noundef readonly captures(address) %1, ptr noundef readnone captures(address) %2, ptr noundef nonnull align 8 captures(address) dereferenceable(144) %3) local_unnamed_addr #4 align 2 {
  %.not11 = icmp eq ptr %1, %2
  br i1 %.not11, label %._crit_edge, label %.lr.ph

.lr.ph:                                           ; preds = %4
  %5 = getelementptr inbounds nuw i8, ptr %3, i64 8
  %6 = getelementptr inbounds nuw i8, ptr %3, i64 12
  %7 = getelementptr inbounds nuw i8, ptr %3, i64 16
  br label %8

8:                                                ; preds = %.lr.ph, %_ZN6bufferIP3appLb0ELj16EE9push_backERKS1_.exit
  %.012 = phi ptr [ %1, %.lr.ph ], [ %32, %_ZN6bufferIP3appLb0ELj16EE9push_backERKS1_.exit ]
  %9 = getelementptr inbounds nuw i8, ptr %.012, i64 80
  %10 = getelementptr inbounds nuw i8, ptr %.012, i64 88
  %.sroa.02.0.copyload = load ptr, ptr %10, align 8, !tbaa !187
  %11 = load ptr, ptr %9, align 8, !tbaa !124
  %12 = tail call noundef ptr @_ZN3smt19conflict_resolution9get_proofEPNS_5enodeES2_NS_16eq_justificationE(ptr noundef nonnull align 8 dereferenceable(356) %0, ptr noundef %.012, ptr noundef %11, ptr %.sroa.02.0.copyload)
  %13 = load i32, ptr %5, align 8, !tbaa !776
  %14 = load i32, ptr %6, align 4, !tbaa !777
  %.not.i = icmp ult i32 %13, %14
  br i1 %.not.i, label %._crit_edge.i, label %15

._crit_edge.i:                                    ; preds = %8
  %.pre.i = load ptr, ptr %3, align 8, !tbaa !775
  br label %_ZN6bufferIP3appLb0ELj16EE9push_backERKS1_.exit

15:                                               ; preds = %8
  %16 = shl i32 %14, 1
  %17 = zext i32 %16 to i64
  %18 = shl nuw nsw i64 %17, 3
  %19 = tail call noalias noundef ptr @_ZN6memory8allocateEm(i64 noundef %18)
  %20 = load i32, ptr %5, align 8, !tbaa !776
  %.not.i.i = icmp eq i32 %20, 0
  %.pre.i.i = load ptr, ptr %3, align 8, !tbaa !775
  br i1 %.not.i.i, label %._crit_edge.i.i, label %.lr.ph.i.i

.lr.ph.i.i:                                       ; preds = %15
  %wide.trip.count.i.i = zext i32 %20 to i64
  br label %23

._crit_edge.i.i:                                  ; preds = %23, %15
  %.not.i.i.i = icmp eq ptr %.pre.i.i, %7
  %21 = icmp eq ptr %.pre.i.i, null
  %or.cond.i.i.i = or i1 %.not.i.i.i, %21
  br i1 %or.cond.i.i.i, label %_ZN6bufferIP3appLb0ELj16EE6expandEv.exit.i, label %22

22:                                               ; preds = %._crit_edge.i.i
  tail call void @_ZN6memory10deallocateEPv(ptr noundef nonnull %.pre.i.i)
  %.pre2.pre.i = load i32, ptr %5, align 8, !tbaa !776
  br label %_ZN6bufferIP3appLb0ELj16EE6expandEv.exit.i

23:                                               ; preds = %23, %.lr.ph.i.i
  %indvars.iv.i.i = phi i64 [ 0, %.lr.ph.i.i ], [ %indvars.iv.next.i.i, %23 ]
  %24 = getelementptr inbounds nuw ptr, ptr %19, i64 %indvars.iv.i.i
  %25 = getelementptr inbounds nuw ptr, ptr %.pre.i.i, i64 %indvars.iv.i.i
  %26 = load ptr, ptr %25, align 8, !tbaa !704
  store ptr %26, ptr %24, align 8, !tbaa !704
  %indvars.iv.next.i.i = add nuw nsw i64 %indvars.iv.i.i, 1
  %exitcond.not.i.i = icmp eq i64 %indvars.iv.next.i.i, %wide.trip.count.i.i
  br i1 %exitcond.not.i.i, label %._crit_edge.i.i, label %23, !llvm.loop !778

_ZN6bufferIP3appLb0ELj16EE6expandEv.exit.i:       ; preds = %22, %._crit_edge.i.i
  %.pre2.i = phi i32 [ %20, %._crit_edge.i.i ], [ %.pre2.pre.i, %22 ]
  store ptr %19, ptr %3, align 8, !tbaa !775
  store i32 %16, ptr %6, align 4, !tbaa !777
  br label %_ZN6bufferIP3appLb0ELj16EE9push_backERKS1_.exit

_ZN6bufferIP3appLb0ELj16EE9push_backERKS1_.exit:  ; preds = %._crit_edge.i, %_ZN6bufferIP3appLb0ELj16EE6expandEv.exit.i
  %27 = phi i32 [ %13, %._crit_edge.i ], [ %.pre2.i, %_ZN6bufferIP3appLb0ELj16EE6expandEv.exit.i ]
  %28 = phi ptr [ %.pre.i, %._crit_edge.i ], [ %19, %_ZN6bufferIP3appLb0ELj16EE6expandEv.exit.i ]
  %29 = zext i32 %27 to i64
  %30 = getelementptr inbounds nuw ptr, ptr %28, i64 %29
  store ptr %12, ptr %30, align 8, !tbaa !704
  %31 = add i32 %27, 1
  store i32 %31, ptr %5, align 8, !tbaa !776
  %32 = load ptr, ptr %9, align 8, !tbaa !124
  %.not = icmp eq ptr %32, %2
  br i1 %.not, label %._crit_edge, label %8, !llvm.loop !791

._crit_edge:                                      ; preds = %_ZN6bufferIP3appLb0ELj16EE9push_backERKS1_.exit, %4
  ret void
}